target datalayout = "e-m:e-p270:32:32-p271:32:32-p272:64:64-i64:64-i128:128-f80:128-n8:16:32:64-S128"
target triple = "x86_64-pc-linux-gnu"

%"class.cv::Mat" = type { i32, i32, i32, i32, ptr, ptr, ptr, ptr, ptr, ptr, %"struct.cv::MatSize", %"struct.cv::MatStep" }
%"struct.cv::MatSize" = type { ptr }
%"struct.cv::MatStep" = type { ptr, [2 x i64] }
%"class.cv::ximgproc::segmentation::SelectiveSearchSegmentationStrategy" = type { %"class.cv::Algorithm" }
%"class.cv::Algorithm" = type { ptr }
%"class.std::__cxx11::basic_string" = type { %"struct.std::__cxx11::basic_string<char>::_Alloc_hider", i64, %union.anon }
%"struct.std::__cxx11::basic_string<char>::_Alloc_hider" = type { ptr }
%union.anon = type { i64, [8 x i8] }
%"class.cv::ximgproc::segmentation::SelectiveSearchSegmentationStrategyTextureImpl" = type { %"class.cv::ximgproc::segmentation::SelectiveSearchSegmentationStrategyTexture", %"class.std::__cxx11::basic_string", %"class.cv::Mat", %"class.cv::Mat", i32, i32, %"class.cv::Mat" }
%"class.cv::ximgproc::segmentation::SelectiveSearchSegmentationStrategyTexture" = type { %"class.cv::ximgproc::segmentation::SelectiveSearchSegmentationStrategy" }

; Function Attrs: inlinehint mustprogress nounwind uwtable
define linkonce_odr noundef nonnull align 4 dereferenceable(4) ptr @_ZSt3minIfERKT_S2_S2_(ptr noundef nonnull align 4 dereferenceable(4) %0, ptr noundef nonnull align 4 dereferenceable(4) %1) #8 comdat {
  %3 = alloca ptr, align 8
  %4 = alloca ptr, align 8
  %5 = alloca ptr, align 8
  store ptr %0, ptr %4, align 8, !tbaa !28
  store ptr %1, ptr %5, align 8, !tbaa !28
  %6 = load ptr, ptr %5, align 8, !tbaa !28
  %7 = load float, ptr %6, align 4, !tbaa !33
  %8 = load ptr, ptr %4, align 8, !tbaa !28
  %9 = load float, ptr %8, align 4, !tbaa !33
  %10 = fcmp olt float %7, %9
  br i1 %10, label %11, label %13

11:                                               ; preds = %2
  %12 = load ptr, ptr %5, align 8, !tbaa !28
  store ptr %12, ptr %3, align 8
  br label %15

13:                                               ; preds = %2
  %14 = load ptr, ptr %4, align 8, !tbaa !28
  store ptr %14, ptr %3, align 8
  br label %15

15:                                               ; preds = %13, %11
  %16 = load ptr, ptr %3, align 8
  ret ptr %16
}

; Function Attrs: inlinehint mustprogress nounwind uwtable
define linkonce_odr hidden noundef ptr @_ZN2cv3Mat3ptrIfEEPT_i(ptr noundef nonnull align 8 dereferenceable(96) %0, i32 noundef %1) #8 comdat align 2 {
  %3 = alloca ptr, align 8
  %4 = alloca i32, align 4
  store ptr %0, ptr %3, align 8, !tbaa !45
  store i32 %1, ptr %4, align 4, !tbaa !10
  %5 = load ptr, ptr %3, align 8
  %6 = getelementptr inbounds nuw %"class.cv::Mat", ptr %5, i32 0, i32 4
  %7 = load ptr, ptr %6, align 8, !tbaa !62
  %8 = getelementptr inbounds nuw %"class.cv::Mat", ptr %5, i32 0, i32 11
  %9 = getelementptr inbounds nuw %"struct.cv::MatStep", ptr %8, i32 0, i32 0
  %10 = load ptr, ptr %9, align 8, !tbaa !63
  %11 = getelementptr inbounds i64, ptr %10, i64 0
  %12 = load i64, ptr %11, align 8, !tbaa !64
  %13 = load i32, ptr %4, align 4, !tbaa !10
  %14 = sext i32 %13 to i64
  %15 = mul i64 %12, %14
  %16 = getelementptr inbounds nuw i8, ptr %7, i64 %15
  ret ptr %16
}

; Function Attrs: mustprogress uwtable
define hidden noundef float @_ZN2cv8ximgproc12segmentation46SelectiveSearchSegmentationStrategyTextureImpl3getEii(ptr noundef nonnull align 8 dereferenceable(336) %0, i32 noundef %1, i32 noundef %2) unnamed_addr #4 align 2 {
  %4 = alloca ptr, align 8
  %5 = alloca i32, align 4
  %6 = alloca i32, align 4
  %7 = alloca float, align 4
  %8 = alloca ptr, align 8
  %9 = alloca ptr, align 8
  %10 = alloca i32, align 4
  store ptr %0, ptr %4, align 8, !tbaa !166
  store i32 %1, ptr %5, align 4, !tbaa !10
  store i32 %2, ptr %6, align 4, !tbaa !10
  %11 = load ptr, ptr %4, align 8
  call void @llvm.lifetime.start.p0(i64 4, ptr %7) #3
  store float 0.000000e+00, ptr %7, align 4, !tbaa !33
  call void @llvm.lifetime.start.p0(i64 8, ptr %8) #3
  %12 = getelementptr inbounds nuw %"class.cv::ximgproc::segmentation::SelectiveSearchSegmentationStrategyTextureImpl", ptr %11, i32 0, i32 2
  %13 = load i32, ptr %5, align 4, !tbaa !10
  %14 = call noundef ptr @_ZN2cv3Mat3ptrIfEEPT_i(ptr noundef nonnull align 8 dereferenceable(96) %12, i32 noundef %13)
  store ptr %14, ptr %8, align 8, !tbaa !28
  call void @llvm.lifetime.start.p0(i64 8, ptr %9) #3
  %15 = getelementptr inbounds nuw %"class.cv::ximgproc::segmentation::SelectiveSearchSegmentationStrategyTextureImpl", ptr %11, i32 0, i32 2
  %16 = load i32, ptr %6, align 4, !tbaa !10
  %17 = call noundef ptr @_ZN2cv3Mat3ptrIfEEPT_i(ptr noundef nonnull align 8 dereferenceable(96) %15, i32 noundef %16)
  store ptr %17, ptr %9, align 8, !tbaa !28
  call void @llvm.lifetime.start.p0(i64 4, ptr %10) #3
  store i32 0, ptr %10, align 4, !tbaa !10
  br label %18

18:                                               ; preds = %37, %3
  %19 = load i32, ptr %10, align 4, !tbaa !10
  %20 = getelementptr inbounds nuw %"class.cv::ximgproc::segmentation::SelectiveSearchSegmentationStrategyTextureImpl", ptr %11, i32 0, i32 4
  %21 = load i32, ptr %20, align 8, !tbaa !171
  %22 = icmp slt i32 %19, %21
  br i1 %22, label %24, label %23

23:                                               ; preds = %18
  call void @llvm.lifetime.end.p0(i64 4, ptr %10) #3
  br label %40

24:                                               ; preds = %18
  %25 = load ptr, ptr %8, align 8, !tbaa !28
  %26 = load i32, ptr %10, align 4, !tbaa !10
  %27 = sext i32 %26 to i64
  %28 = getelementptr inbounds float, ptr %25, i64 %27
  %29 = load ptr, ptr %9, align 8, !tbaa !28
  %30 = load i32, ptr %10, align 4, !tbaa !10
  %31 = sext i32 %30 to i64
  %32 = getelementptr inbounds float, ptr %29, i64 %31
  %33 = call noundef nonnull align 4 dereferenceable(4) ptr @_ZSt3minIfERKT_S2_S2_(ptr noundef nonnull align 4 dereferenceable(4) %28, ptr noundef nonnull align 4 dereferenceable(4) %32)
  %34 = load float, ptr %33, align 4, !tbaa !33
  %35 = load float, ptr %7, align 4, !tbaa !33
  %36 = fadd float %35, %34
  store float %36, ptr %7, align 4, !tbaa !33
  br label %37

37:                                               ; preds = %24
  %38 = load i32, ptr %10, align 4, !tbaa !10
  %39 = add nsw i32 %38, 1
  store i32 %39, ptr %10, align 4, !tbaa !10
  br label %18, !llvm.loop !211

40:                                               ; preds = %23
  %41 = load float, ptr %7, align 4, !tbaa !33
  call void @llvm.lifetime.end.p0(i64 8, ptr %9) #3
  call void @llvm.lifetime.end.p0(i64 8, ptr %8) #3
  call void @llvm.lifetime.end.p0(i64 4, ptr %7) #3
  ret float %41
}