; Function Attrs: mustprogress nofree norecurse nosync nounwind willreturn memory(read, inaccessiblemem: none) uwtable
define hidden noundef float @_ZN2cv8ximgproc12segmentation46SelectiveSearchSegmentationStrategyTextureImpl3getEii(ptr noundef nonnull readonly align 8 captures(none) dereferenceable(336) %0, i32 noundef %1, i32 noundef %2) unnamed_addr #8 align 2 {
  %4 = getelementptr inbounds nuw i8, ptr %0, i64 56
  %5 = load ptr, ptr %4, align 8, !tbaa !55
  %6 = getelementptr inbounds nuw i8, ptr %0, i64 112
  %7 = load ptr, ptr %6, align 8, !tbaa !56
  %8 = load i64, ptr %7, align 8, !tbaa !57
  %9 = sext i32 %1 to i64
  %10 = mul i64 %8, %9
  %11 = getelementptr inbounds nuw i8, ptr %5, i64 %10
  %12 = sext i32 %2 to i64
  %13 = mul i64 %8, %12
  %14 = getelementptr inbounds nuw i8, ptr %5, i64 %13
  %15 = getelementptr inbounds nuw i8, ptr %0, i64 232
  %16 = load i32, ptr %15, align 8, !tbaa !228
  %17 = icmp sgt i32 %16, 0
  br i1 %17, label %.lr.ph.preheader, label %._crit_edge

.lr.ph.preheader:                                 ; preds = %3
  %wide.trip.count = zext nneg i32 %16 to i64
  br label %.lr.ph

._crit_edge:                                      ; preds = %.lr.ph, %3
  %.010.lcssa = phi float [ 0.000000e+00, %3 ], [ %24, %.lr.ph ]
  ret float %.010.lcssa

.lr.ph:                                           ; preds = %.lr.ph.preheader, %.lr.ph
  %indvars.iv = phi i64 [ 0, %.lr.ph.preheader ], [ %indvars.iv.next, %.lr.ph ]
  %.01012 = phi float [ 0.000000e+00, %.lr.ph.preheader ], [ %24, %.lr.ph ]
  %18 = getelementptr inbounds nuw float, ptr %11, i64 %indvars.iv
  %19 = getelementptr inbounds nuw float, ptr %14, i64 %indvars.iv
  %20 = load float, ptr %19, align 4, !tbaa !63
  %21 = load float, ptr %18, align 4, !tbaa !63
  %22 = fcmp olt float %20, %21
  %23 = select i1 %22, float %20, float %21
  %24 = fadd float %.01012, %23
  %indvars.iv.next = add nuw nsw i64 %indvars.iv, 1
  %exitcond.not = icmp eq i64 %indvars.iv.next, %wide.trip.count
  br i1 %exitcond.not, label %._crit_edge, label %.lr.ph, !llvm.loop !262
}